Private-Key: (1024 bit)
modulus:
    00:b8:ca:4e:00:c7:d3:eb:a6:e9:ec:50:49:5d:63:
    7c:2f:f6:10:4b:ed:a5:a1:96:97:fa:87:53:a7:10:
    94:e8:af:c8:36:ec:b2:36:35:23:3f:6f:1e:0e:87:
    b1:87:3e:c5:65:b5:90:b0:58:34:e8:1a:29:a3:3b:
    3d:1b:4a:82:d8:3f:a4:d7:60:2f:e3:95:4e:f2:51:
    97:50:e5:31:b9:6f:ba:46:16:ec:3b:76:76:27:52:
    1a:f5:1c:6d:62:d3:b6:9c:31:46:f4:b4:1e:4b:d5:
    ec:8d:ad:52:5c:0f:dc:d8:77:30:f7:1a:c2:c3:46:
    51:65:23:2d:0f:55:0f:39:6d
publicExponent: 65537 (0x10001)
privateExponent:
    00:87:22:3a:84:cb:9d:28:39:79:db:7c:a3:0a:0e:
    54:a4:e6:36:e8:af:b3:6e:45:a8:82:67:30:3f:7e:
    1a:c7:46:b5:0d:a5:6e:75:c1:ca:32:fb:59:69:9a:
    c5:b2:77:ae:f7:40:1d:bd:37:e4:08:d0:09:1e:fb:
    95:26:3e:09:0c:46:fa:07:7a:e5:5c:e0:f5:be:5e:
    1a:16:c7:50:56:2c:27:73:49:8c:96:ce:31:dc:04:
    5a:39:f2:25:d0:e5:6d:62:30:3e:6f:59:f9:87:7d:
    60:fd:53:d4:fa:90:e8:51:f7:c4:09:ee:d0:f6:40:
    3e:e1:6a:45:84:19:a1:ad:01
prime1:
    00:f3:13:01:58:98:9a:65:c9:da:88:a6:73:be:17:
    66:45:29:78:ae:cf:d4:36:2c:14:84:cc:47:5a:79:
    e3:a9:f4:cc:be:f1:cb:92:30:3f:37:11:83:06:1e:
    6d:10:4b:e9:9e:c5:8b:86:1e:76:2b:b4:57:35:ea:
    43:96:40:85:a1
prime2:
    00:c2:9d:df:9e:40:2f:fe:39:7d:f0:1a:52:07:89:
    f4:a9:1e:bd:d3:48:eb:05:ff:a4:95:3a:f2:05:57:
    76:c5:2c:81:3f:7f:bc:31:c4:ad:26:b3:28:5e:86:
    1b:2c:76:6f:23:82:e7:43:f2:81:b8:fe:e1:b6:bd:
    6a:39:3a:08:4d
exponent1:
    45:4c:59:c9:e4:57:c0:45:37:e4:55:70:11:f5:a1:
    d6:7d:e8:46:0e:42:35:df:83:4a:08:e3:1e:cc:39:
    37:ae:ee:e0:51:16:f4:6a:84:db:32:46:e4:6b:b0:
    34:41:30:2d:6f:ac:43:64:53:d4:49:e9:c3:19:32:
    83:97:89:81
exponent2:
    00:aa:e1:84:1f:a7:ac:7c:44:6e:d8:0b:c4:4a:ea:
    4e:f0:d0:15:4d:17:91:85:4a:da:70:4d:b9:84:07:
    30:3a:20:c1:bb:c7:a4:ae:ee:4a:3a:d8:c4:71:7a:
    bf:11:63:4c:62:99:e6:06:3b:40:bb:f6:d0:a9:6b:
    d7:81:37:fb:61
coefficient:
    00:81:88:39:aa:cd:60:9c:b7:ed:22:08:67:63:26:
    bf:00:44:a4:88:82:88:1d:08:19:02:81:0a:08:a2:
    80:43:b7:4f:97:f9:af:f8:3a:cd:86:d0:07:37:e9:
    a3:7d:e8:eb:b6:d5:18:86:8c:5a:ea:46:25:6f:a2:
    67:84:64:03:b3
Certificate:
    Data:
        Version: 3 (0x2)
        Serial Number: 76366423 (0x48d4257)
        Signature Algorithm: sha1WithRSAEncryption
        Issuer: C=FR, ST=Ile-de-France, L=Paris, O=Invisible Media/Email=skercrow@free.fr, CN=Invisible Media
        Validity
            Not Before: Jan  5 21:23:21 2016 GMT
            Not After : Jan  4 21:23:21 2018 GMT
        Subject: C=FR, ST=Ile-de-France, L=Paris, O=Invisible Media/Email=skercrow@free.fr, CN=Invisible Media
        Subject Public Key Info:
            Public Key Algorithm: rsaEncryption
            RSA Public Key: (1024 bit)
                Modulus (1024 bit):
                    00:b8:ca:4e:00:c7:d3:eb:a6:e9:ec:50:49:5d:63:
                    7c:2f:f6:10:4b:ed:a5:a1:96:97:fa:87:53:a7:10:
                    94:e8:af:c8:36:ec:b2:36:35:23:3f:6f:1e:0e:87:
                    b1:87:3e:c5:65:b5:90:b0:58:34:e8:1a:29:a3:3b:
                    3d:1b:4a:82:d8:3f:a4:d7:60:2f:e3:95:4e:f2:51:
                    97:50:e5:31:b9:6f:ba:46:16:ec:3b:76:76:27:52:
                    1a:f5:1c:6d:62:d3:b6:9c:31:46:f4:b4:1e:4b:d5:
                    ec:8d:ad:52:5c:0f:dc:d8:77:30:f7:1a:c2:c3:46:
                    51:65:23:2d:0f:55:0f:39:6d
                Exponent: 65537 (0x10001)
        X509v3 extensions:
            Netscape SSL Server Name: 
                www.abylonsoft.de
    Signature Algorithm: sha1WithRSAEncryption
        45:af:a3:47:2d:e3:53:79:c3:da:d7:90:67:ba:dc:c8:ae:43:
        23:18:61:2a:f1:4f:e8:51:87:94:9c:99:8f:02:b6:e2:05:dd:
        8d:59:52:2a:8f:4a:ff:7f:11:46:f6:ed:72:61:e0:bf:d8:5a:
        6a:36:5f:b5:35:97:1b:bc:c6:71:6f:ba:59:84:85:25:64:b5:
        7c:a8:ca:cd:11:a4:28:8c:f7:95:30:12:6b:51:e4:6c:ef:f9:
        89:dc:f2:68:9b:29:d7:6b:9a:dd:9e:fe:b8:93:86:e5:43:21:
        5b:85:2c:a7:ea:60:2d:24:f8:3d:03:95:cb:c5:e6:16:64:0e:
        2c:a6
No Trusted Uses.
No Rejected Uses.
Alias: InvisibleMedia
-----BEGIN RSA PRIVATE KEY-----
MIICXgIBAAKBgQC4yk4Ax9PrpunsUEldY3wv9hBL7aWhlpf6h1OnEJTor8g27LI2
NSM/bx4Oh7GHPsVltZCwWDToGimjOz0bSoLYP6TXYC/jlU7yUZdQ5TG5b7pGFuw7
dnYnUhr1HG1i07acMUb0tB5L1eyNrVJcD9zYdzD3GsLDRlFlIy0PVQ85bQIDAQAB
AoGBAIciOoTLnSg5edt8owoOVKTmNuivs25FqIJnMD9+GsdGtQ2lbnXByjL7WWma
xbJ3rvdAHb035AjQCR77lSY+CQxG+gd65Vzg9b5eGhbHUFYsJ3NJjJbOMdwEWjny
JdDlbWIwPm9Z+Yd9YP1T1PqQ6FH3xAnu0PZAPuFqRYQZoa0BAkEA8xMBWJiaZcna
iKZzvhdmRSl4rs/UNiwUhMxHWnnjqfTMvvHLkjA/NxGDBh5tEEvpnsWLhh52K7RX
NepDlkCFoQJBAMKd355AL/45ffAaUgeJ9KkevdNI6wX/pJU68gVXdsUsgT9/vDHE
rSazKF6GGyx2byOC50Pygbj+4ba9ajk6CE0CQEVMWcnkV8BFN+RVcBH1odZ96EYO
QjXfg0oI4x7MOTeu7uBRFvRqhNsyRuRrsDRBMC1vrENkU9RJ6cMZMoOXiYECQQCq
4YQfp6x8RG7YC8RK6k7w0BVNF5GFStpwTbmEBzA6IMG7x6Su7ko62MRxer8RY0xi
meYGO0C79tCpa9eBN/thAkEAgYg5qs1gnLftIghnYya/AESkiIKIHQgZAoEKCKKA
Q7dPl/mv+DrNhtAHN+mjfejrttUYhoxa6kYlb6JnhGQDsw==
-----END RSA PRIVATE KEY-----
-----BEGIN CERTIFICATE-----
MIICszCCAhygAwIBAgIEBI1CVzANBgkqhkiG9w0BAQUFADCBijELMAkGA1UEBhMC
RlIxFjAUBgNVBAgTDUlsZS1kZS1GcmFuY2UxDjAMBgNVBAcTBVBhcmlzMRgwFgYD
VQQKEw9JbnZpc2libGUgTWVkaWExHzAdBgkqhkiG9w0BCQEWEHNrZXJjcm93QGZy
ZWUuZnIxGDAWBgNVBAMTD0ludmlzaWJsZSBNZWRpYTAeFw0xNjAxMDUyMTIzMjFa
Fw0xODAxMDQyMTIzMjFaMIGKMQswCQYDVQQGEwJGUjEWMBQGA1UECBMNSWxlLWRl
LUZyYW5jZTEOMAwGA1UEBxMFUGFyaXMxGDAWBgNVBAoTD0ludmlzaWJsZSBNZWRp
YTEfMB0GCSqGSIb3DQEJARYQc2tlcmNyb3dAZnJlZS5mcjEYMBYGA1UEAxMPSW52
aXNpYmxlIE1lZGlhMIGfMA0GCSqGSIb3DQEBAQUAA4GNADCBiQKBgQC4yk4Ax9Pr
punsUEldY3wv9hBL7aWhlpf6h1OnEJTor8g27LI2NSM/bx4Oh7GHPsVltZCwWDTo
GimjOz0bSoLYP6TXYC/jlU7yUZdQ5TG5b7pGFuw7dnYnUhr1HG1i07acMUb0tB5L
1eyNrVJcD9zYdzD3GsLDRlFlIy0PVQ85bQIDAQABoyQwIjAgBglghkgBhvhCAQwE
ExYRd3d3LmFieWxvbnNvZnQuZGUwDQYJKoZIhvcNAQEFBQADgYEARa+jRy3jU3nD
2teQZ7rcyK5DIxhhKvFP6FGHlJyZjwK24gXdjVlSKo9K/38RRvbtcmHgv9haajZf
tTWXG7zGcW+6WYSFJWS1fKjKzRGkKIz3lTASa1HkbO/5idzyaJsp12ua3Z7+uJOG
5UMhW4Usp+pgLST4PQOVy8XmFmQOLKY=
-----END CERTIFICATE-----
